; Function Attrs: mustprogress nofree norecurse nosync nounwind willreturn memory(argmem: readwrite) uwtable
define void @ggml_opt_result_reset(ptr noundef captures(none) initializes((0, 8), (56, 64)) %0) local_unnamed_addr #10 personality ptr @__gxx_personality_v0 {
  store i64 0, ptr %0, align 8, !tbaa !121
  %2 = getelementptr inbounds nuw i8, ptr %0, i64 8
  %3 = load ptr, ptr %2, align 8, !tbaa !119
  %4 = getelementptr inbounds nuw i8, ptr %0, i64 16
  %5 = load ptr, ptr %4, align 8, !tbaa !122
  %.not.i.i = icmp eq ptr %5, %3
  br i1 %.not.i.i, label %_ZNSt6vectorIfSaIfEE5clearEv.exit, label %6

6:                                                ; preds = %1
  store ptr %3, ptr %4, align 8, !tbaa !122
  br label %_ZNSt6vectorIfSaIfEE5clearEv.exit

_ZNSt6vectorIfSaIfEE5clearEv.exit:                ; preds = %1, %6
  %7 = getelementptr inbounds nuw i8, ptr %0, i64 32
  %8 = load ptr, ptr %7, align 8, !tbaa !117
  %9 = getelementptr inbounds nuw i8, ptr %0, i64 40
  %10 = load ptr, ptr %9, align 8, !tbaa !123
  %.not.i.i4 = icmp eq ptr %10, %8
  br i1 %.not.i.i4, label %_ZNSt6vectorIiSaIiEE5clearEv.exit, label %11

11:                                               ; preds = %_ZNSt6vectorIfSaIfEE5clearEv.exit
  store ptr %8, ptr %9, align 8, !tbaa !123
  br label %_ZNSt6vectorIiSaIiEE5clearEv.exit

_ZNSt6vectorIiSaIiEE5clearEv.exit:                ; preds = %_ZNSt6vectorIfSaIfEE5clearEv.exit, %11
  %12 = getelementptr inbounds nuw i8, ptr %0, i64 56
  store i64 0, ptr %12, align 8, !tbaa !124
  ret void
}